target datalayout = "e-m:e-p270:32:32-p271:32:32-p272:64:64-i64:64-i128:128-f80:128-n8:16:32:64-S128"
target triple = "x86_64-pc-linux-gnu"

%struct.lua_State = type { ptr, i8, i8, i8, i8, i16, %union.StkIdRel, ptr, ptr, %union.StkIdRel, %union.StkIdRel, ptr, %union.StkIdRel, ptr, ptr, ptr, %struct.CallInfo, ptr, i64, i32, i32, i32, i32, i32, %struct.anon.2 }
%union.StkIdRel = type { ptr }
%struct.CallInfo = type { %union.StkIdRel, %union.StkIdRel, ptr, ptr, %union.anon, %union.anon.1, i32 }
%union.anon = type { %struct.anon.0 }
%struct.anon.0 = type { ptr, i64, i64 }
%union.anon.1 = type { i32 }
%struct.anon.2 = type { i32, i32 }
%struct.global_State = type { ptr, ptr, i64, i64, i64, i64, %struct.stringtable, %struct.TValue, %struct.TValue, i32, [6 x i8], i8, i8, i8, i8, i8, i8, ptr, ptr, ptr, ptr, ptr, ptr, ptr, ptr, ptr, ptr, ptr, ptr, ptr, ptr, ptr, ptr, ptr, ptr, ptr, ptr, ptr, [25 x ptr], [9 x ptr], [53 x [2 x ptr]], ptr, ptr }
%struct.stringtable = type { ptr, i32, i32 }
%struct.TValue = type { %union.Value, i8 }
%union.Value = type { ptr }

; Function Attrs: nounwind uwtable
define internal ptr @tryagain(ptr noundef %0, ptr noundef %1, i64 noundef %2, i64 noundef %3) #0 {
  %5 = alloca ptr, align 8
  %6 = alloca ptr, align 8
  %7 = alloca ptr, align 8
  %8 = alloca i64, align 8
  %9 = alloca i64, align 8
  %10 = alloca ptr, align 8
  %11 = alloca i32, align 4
  store ptr %0, ptr %6, align 8, !tbaa !4
  store ptr %1, ptr %7, align 8, !tbaa !9
  store i64 %2, ptr %8, align 8, !tbaa !16
  store i64 %3, ptr %9, align 8, !tbaa !16
  call void @llvm.lifetime.start.p0(i64 8, ptr %10) #6
  %12 = load ptr, ptr %6, align 8, !tbaa !4
  %13 = getelementptr inbounds nuw %struct.lua_State, ptr %12, i32 0, i32 7
  %14 = load ptr, ptr %13, align 8, !tbaa !18
  store ptr %14, ptr %10, align 8, !tbaa !28
  %15 = load ptr, ptr %10, align 8, !tbaa !28
  %16 = getelementptr inbounds nuw %struct.global_State, ptr %15, i32 0, i32 8
  %17 = getelementptr inbounds nuw %struct.TValue, ptr %16, i32 0, i32 1
  %18 = load i8, ptr %17, align 8, !tbaa !38
  %19 = zext i8 %18 to i32
  %20 = and i32 %19, 15
  %21 = icmp eq i32 %20, 0
  br i1 %21, label %22, label %39

22:                                               ; preds = %4
  %23 = load ptr, ptr %10, align 8, !tbaa !28
  %24 = getelementptr inbounds nuw %struct.global_State, ptr %23, i32 0, i32 14
  %25 = load i8, ptr %24, align 1, !tbaa !39
  %26 = icmp ne i8 %25, 0
  br i1 %26, label %39, label %27

27:                                               ; preds = %22
  %28 = load ptr, ptr %6, align 8, !tbaa !4
  call void @luaC_fullgc(ptr noundef %28, i32 noundef 1)
  %29 = load ptr, ptr %10, align 8, !tbaa !28
  %30 = getelementptr inbounds nuw %struct.global_State, ptr %29, i32 0, i32 0
  %31 = load ptr, ptr %30, align 8, !tbaa !29
  %32 = load ptr, ptr %10, align 8, !tbaa !28
  %33 = getelementptr inbounds nuw %struct.global_State, ptr %32, i32 0, i32 1
  %34 = load ptr, ptr %33, align 8, !tbaa !36
  %35 = load ptr, ptr %7, align 8, !tbaa !9
  %36 = load i64, ptr %8, align 8, !tbaa !16
  %37 = load i64, ptr %9, align 8, !tbaa !16
  %38 = call ptr %31(ptr noundef %34, ptr noundef %35, i64 noundef %36, i64 noundef %37)
  store ptr %38, ptr %5, align 8
  store i32 1, ptr %11, align 4
  br label %40

39:                                               ; preds = %22, %4
  store ptr null, ptr %5, align 8
  store i32 1, ptr %11, align 4
  br label %40

40:                                               ; preds = %39, %27
  call void @llvm.lifetime.end.p0(i64 8, ptr %10) #6
  %41 = load ptr, ptr %5, align 8
  ret ptr %41
}