; Function Attrs: nounwind uwtable
define internal fastcc ptr @tryagain(ptr noundef %0, ptr noundef %1, i64 noundef %2, i64 noundef range(i64 1, 0) %3) unnamed_addr #0 {
  %5 = getelementptr inbounds nuw i8, ptr %0, i64 24
  %6 = load ptr, ptr %5, align 8, !tbaa !9
  %7 = getelementptr inbounds nuw i8, ptr %6, i64 88
  %8 = load i8, ptr %7, align 8, !tbaa !32
  %9 = and i8 %8, 15
  %10 = icmp eq i8 %9, 0
  br i1 %10, label %11, label %19

11:                                               ; preds = %4
  %12 = getelementptr inbounds nuw i8, ptr %6, i64 109
  %13 = load i8, ptr %12, align 1, !tbaa !33
  %.not = icmp eq i8 %13, 0
  br i1 %.not, label %14, label %19

14:                                               ; preds = %11
  tail call void @luaC_fullgc(ptr noundef nonnull %0, i32 noundef 1) #6
  %15 = load ptr, ptr %6, align 8, !tbaa !22
  %16 = getelementptr inbounds nuw i8, ptr %6, i64 8
  %17 = load ptr, ptr %16, align 8, !tbaa !29
  %18 = tail call ptr %15(ptr noundef %17, ptr noundef %1, i64 noundef %2, i64 noundef %3) #6
  br label %19

19:                                               ; preds = %4, %11, %14
  %.0 = phi ptr [ %18, %14 ], [ null, %11 ], [ null, %4 ]
  ret ptr %.0
}